target datalayout = "e-m:e-p270:32:32-p271:32:32-p272:64:64-i64:64-i128:128-f80:128-n8:16:32:64-S128"
target triple = "x86_64-pc-linux-gnu"

@.str.4 = private unnamed_addr constant [2 x i8] c"\0A\00", align 1
@.str.5 = private unnamed_addr constant [31 x i8] c"    synth_microchip [options]\0A\00", align 1
@.str.6 = private unnamed_addr constant [72 x i8] c"This command runs synthesis for Microchip FPGAs. This command creates \0A\00", align 1
@.str.7 = private unnamed_addr constant [65 x i8] c"netlists that are compatible with Microchip PolarFire devices. \0A\00", align 1
@.str.8 = private unnamed_addr constant [19 x i8] c"    -top <module>\0A\00", align 1
@.str.9 = private unnamed_addr constant [52 x i8] c"        use the specified module as the top module\0A\00", align 1
@.str.10 = private unnamed_addr constant [22 x i8] c"    -family <family>\0A\00", align 1
@.str.11 = private unnamed_addr constant [66 x i8] c"        Run synthesis for the specified Microchip architecture. \0A\00", align 1
@.str.12 = private unnamed_addr constant [66 x i8] c"        Generate the synthesis netlist for the specified family.\0A\00", align 1
@.str.13 = private unnamed_addr constant [27 x i8] c"        supported values:\0A\00", align 1
@.str.14 = private unnamed_addr constant [32 x i8] c"        - polarfire: PolarFire\0A\00", align 1
@.str.15 = private unnamed_addr constant [18 x i8] c"    -edif <file>\0A\00", align 1
@.str.16 = private unnamed_addr constant [80 x i8] c"        Write the design to the specified edif file. Writing of an output file\0A\00", align 1
@.str.17 = private unnamed_addr constant [56 x i8] c"        is omitted if this parameter is not specified.\0A\00", align 1
@.str.18 = private unnamed_addr constant [18 x i8] c"    -blif <file>\0A\00", align 1
@.str.19 = private unnamed_addr constant [80 x i8] c"        Write the design to the specified BLIF file. Writing of an output file\0A\00", align 1
@.str.20 = private unnamed_addr constant [18 x i8] c"    -vlog <file>\0A\00", align 1
@.str.21 = private unnamed_addr constant [78 x i8] c"        write the design to the specified Verilog file. writing of an output\0A\00", align 1
@.str.22 = private unnamed_addr constant [61 x i8] c"        file is omitted if this parameter is not specified.\0A\00", align 1
@.str.23 = private unnamed_addr constant [13 x i8] c"    -nobram\0A\00", align 1
@.str.24 = private unnamed_addr constant [54 x i8] c"        Do not use block RAM cells in output netlist\0A\00", align 1
@.str.25 = private unnamed_addr constant [14 x i8] c"    -nocarry\0A\00", align 1
@.str.26 = private unnamed_addr constant [49 x i8] c"        Do not use ARI1 cells in output netlist\0A\00", align 1
@.str.27 = private unnamed_addr constant [12 x i8] c"    -nodsp\0A\00", align 1
@.str.28 = private unnamed_addr constant [78 x i8] c"        Do not use MATH blocks to implement multipliers and associated logic\0A\00", align 1
@.str.29 = private unnamed_addr constant [14 x i8] c"    -noiopad\0A\00", align 1
@.str.30 = private unnamed_addr constant [67 x i8] c"        Disable I/O buffer insertion (useful for hierarchical or \0A\00", align 1
@.str.31 = private unnamed_addr constant [31 x i8] c"        out-of-context flows)\0A\00", align 1
@.str.32 = private unnamed_addr constant [15 x i8] c"    -noclkbuf\0A\00", align 1
@.str.33 = private unnamed_addr constant [50 x i8] c"        Disable automatic clock buffer insertion\0A\00", align 1
@.str.34 = private unnamed_addr constant [34 x i8] c"    -run <from_label>:<to_label>\0A\00", align 1
@.str.35 = private unnamed_addr constant [72 x i8] c"        Only run the commands between the labels (see below). an empty\0A\00", align 1
@.str.36 = private unnamed_addr constant [72 x i8] c"        'from_label' is synonymous to 'begin', and empty 'to_label' is\0A\00", align 1
@.str.37 = private unnamed_addr constant [52 x i8] c"        synonymous to the end of the command list.\0A\00", align 1
@.str.38 = private unnamed_addr constant [16 x i8] c"    -noflatten\0A\00", align 1
@.str.39 = private unnamed_addr constant [48 x i8] c"        do not flatten design before synthesis\0A\00", align 1
@.str.40 = private unnamed_addr constant [10 x i8] c"    -dff\0A\00", align 1
@.str.41 = private unnamed_addr constant [43 x i8] c"        Run 'abc'/'abc9' with -dff option\0A\00", align 1
@.str.42 = private unnamed_addr constant [13 x i8] c"    -retime\0A\00", align 1
@.str.43 = private unnamed_addr constant [68 x i8] c"        Run 'abc' with '-D 1' option to enable flip-flop retiming.\0A\00", align 1
@.str.44 = private unnamed_addr constant [23 x i8] c"        implies -dff.\0A\00", align 1
@.str.45 = private unnamed_addr constant [13 x i8] c"    -noabc9\0A\00", align 1
@.str.46 = private unnamed_addr constant [46 x i8] c"        Use classic ABC flow instead of ABC9\0A\00", align 1
@.str.47 = private unnamed_addr constant [21 x i8] c"    -discard-ffinit\0A\00", align 1
@.str.48 = private unnamed_addr constant [60 x i8] c"        discard FF init value instead of emitting an error\0A\00", align 1
@.str.49 = private unnamed_addr constant [64 x i8] c"The following commands are executed by this synthesis command:\0A\00", align 1

; Function Attrs: mustprogress uwtable
define internal void @_ZN12_GLOBAL__N_118SynthMicrochipPass4helpEv(ptr noundef nonnull align 8 dereferenceable(362) %0) unnamed_addr #4 align 2 {
  %2 = alloca ptr, align 8
  store ptr %0, ptr %2, align 8, !tbaa !6
  %3 = load ptr, ptr %2, align 8
  call void (ptr, ...) @_ZN5Yosys3logEPKcz(ptr noundef @.str.4)
  call void (ptr, ...) @_ZN5Yosys3logEPKcz(ptr noundef @.str.5)
  call void (ptr, ...) @_ZN5Yosys3logEPKcz(ptr noundef @.str.4)
  call void (ptr, ...) @_ZN5Yosys3logEPKcz(ptr noundef @.str.6)
  call void (ptr, ...) @_ZN5Yosys3logEPKcz(ptr noundef @.str.7)
  call void (ptr, ...) @_ZN5Yosys3logEPKcz(ptr noundef @.str.4)
  call void (ptr, ...) @_ZN5Yosys3logEPKcz(ptr noundef @.str.8)
  call void (ptr, ...) @_ZN5Yosys3logEPKcz(ptr noundef @.str.9)
  call void (ptr, ...) @_ZN5Yosys3logEPKcz(ptr noundef @.str.4)
  call void (ptr, ...) @_ZN5Yosys3logEPKcz(ptr noundef @.str.10)
  call void (ptr, ...) @_ZN5Yosys3logEPKcz(ptr noundef @.str.11)
  call void (ptr, ...) @_ZN5Yosys3logEPKcz(ptr noundef @.str.12)
  call void (ptr, ...) @_ZN5Yosys3logEPKcz(ptr noundef @.str.13)
  call void (ptr, ...) @_ZN5Yosys3logEPKcz(ptr noundef @.str.14)
  call void (ptr, ...) @_ZN5Yosys3logEPKcz(ptr noundef @.str.4)
  call void (ptr, ...) @_ZN5Yosys3logEPKcz(ptr noundef @.str.15)
  call void (ptr, ...) @_ZN5Yosys3logEPKcz(ptr noundef @.str.16)
  call void (ptr, ...) @_ZN5Yosys3logEPKcz(ptr noundef @.str.17)
  call void (ptr, ...) @_ZN5Yosys3logEPKcz(ptr noundef @.str.4)
  call void (ptr, ...) @_ZN5Yosys3logEPKcz(ptr noundef @.str.18)
  call void (ptr, ...) @_ZN5Yosys3logEPKcz(ptr noundef @.str.19)
  call void (ptr, ...) @_ZN5Yosys3logEPKcz(ptr noundef @.str.17)
  call void (ptr, ...) @_ZN5Yosys3logEPKcz(ptr noundef @.str.4)
  call void (ptr, ...) @_ZN5Yosys3logEPKcz(ptr noundef @.str.20)
  call void (ptr, ...) @_ZN5Yosys3logEPKcz(ptr noundef @.str.21)
  call void (ptr, ...) @_ZN5Yosys3logEPKcz(ptr noundef @.str.22)
  call void (ptr, ...) @_ZN5Yosys3logEPKcz(ptr noundef @.str.23)
  call void (ptr, ...) @_ZN5Yosys3logEPKcz(ptr noundef @.str.24)
  call void (ptr, ...) @_ZN5Yosys3logEPKcz(ptr noundef @.str.4)
  call void (ptr, ...) @_ZN5Yosys3logEPKcz(ptr noundef @.str.25)
  call void (ptr, ...) @_ZN5Yosys3logEPKcz(ptr noundef @.str.26)
  call void (ptr, ...) @_ZN5Yosys3logEPKcz(ptr noundef @.str.4)
  call void (ptr, ...) @_ZN5Yosys3logEPKcz(ptr noundef @.str.27)
  call void (ptr, ...) @_ZN5Yosys3logEPKcz(ptr noundef @.str.28)
  call void (ptr, ...) @_ZN5Yosys3logEPKcz(ptr noundef @.str.4)
  call void (ptr, ...) @_ZN5Yosys3logEPKcz(ptr noundef @.str.29)
  call void (ptr, ...) @_ZN5Yosys3logEPKcz(ptr noundef @.str.30)
  call void (ptr, ...) @_ZN5Yosys3logEPKcz(ptr noundef @.str.31)
  call void (ptr, ...) @_ZN5Yosys3logEPKcz(ptr noundef @.str.4)
  call void (ptr, ...) @_ZN5Yosys3logEPKcz(ptr noundef @.str.32)
  call void (ptr, ...) @_ZN5Yosys3logEPKcz(ptr noundef @.str.33)
  call void (ptr, ...) @_ZN5Yosys3logEPKcz(ptr noundef @.str.4)
  call void (ptr, ...) @_ZN5Yosys3logEPKcz(ptr noundef @.str.34)
  call void (ptr, ...) @_ZN5Yosys3logEPKcz(ptr noundef @.str.35)
  call void (ptr, ...) @_ZN5Yosys3logEPKcz(ptr noundef @.str.36)
  call void (ptr, ...) @_ZN5Yosys3logEPKcz(ptr noundef @.str.37)
  call void (ptr, ...) @_ZN5Yosys3logEPKcz(ptr noundef @.str.4)
  call void (ptr, ...) @_ZN5Yosys3logEPKcz(ptr noundef @.str.38)
  call void (ptr, ...) @_ZN5Yosys3logEPKcz(ptr noundef @.str.39)
  call void (ptr, ...) @_ZN5Yosys3logEPKcz(ptr noundef @.str.4)
  call void (ptr, ...) @_ZN5Yosys3logEPKcz(ptr noundef @.str.40)
  call void (ptr, ...) @_ZN5Yosys3logEPKcz(ptr noundef @.str.41)
  call void (ptr, ...) @_ZN5Yosys3logEPKcz(ptr noundef @.str.4)
  call void (ptr, ...) @_ZN5Yosys3logEPKcz(ptr noundef @.str.42)
  call void (ptr, ...) @_ZN5Yosys3logEPKcz(ptr noundef @.str.43)
  call void (ptr, ...) @_ZN5Yosys3logEPKcz(ptr noundef @.str.44)
  call void (ptr, ...) @_ZN5Yosys3logEPKcz(ptr noundef @.str.4)
  call void (ptr, ...) @_ZN5Yosys3logEPKcz(ptr noundef @.str.45)
  call void (ptr, ...) @_ZN5Yosys3logEPKcz(ptr noundef @.str.46)
  call void (ptr, ...) @_ZN5Yosys3logEPKcz(ptr noundef @.str.4)
  call void (ptr, ...) @_ZN5Yosys3logEPKcz(ptr noundef @.str.47)
  call void (ptr, ...) @_ZN5Yosys3logEPKcz(ptr noundef @.str.48)
  call void (ptr, ...) @_ZN5Yosys3logEPKcz(ptr noundef @.str.4)
  call void (ptr, ...) @_ZN5Yosys3logEPKcz(ptr noundef @.str.4)
  call void (ptr, ...) @_ZN5Yosys3logEPKcz(ptr noundef @.str.49)
  call void @_ZN5Yosys10ScriptPass11help_scriptEv(ptr noundef nonnull align 8 dereferenceable(184) %3)
  call void (ptr, ...) @_ZN5Yosys3logEPKcz(ptr noundef @.str.4)
  ret void
}